; Function Attrs: mustprogress uwtable
define void @_ZN17grpc_event_engine12experimental14BasicWorkQueueC2EPv(ptr noundef nonnull align 8 dereferenceable(104) initializes((0, 96)) %0, ptr noundef %1) unnamed_addr #3 align 2 personality ptr @__gxx_personality_v0 {
_ZNSt5dequeIPN17grpc_event_engine12experimental11EventEngine7ClosureESaIS4_EEC2Ev.exit:
  store ptr getelementptr inbounds nuw inrange(-16, 72) (i8, ptr @_ZTVN17grpc_event_engine12experimental14BasicWorkQueueE, i64 16), ptr %0, align 8, !tbaa !3
  %2 = getelementptr inbounds nuw i8, ptr %0, i64 8
  %3 = getelementptr inbounds nuw i8, ptr %0, i64 16
  tail call void @llvm.memset.p0.i64(ptr noundef nonnull align 8 dereferenceable(88) %2, i8 0, i64 88, i1 false)
  tail call void @_ZNSt11_Deque_baseIPN17grpc_event_engine12experimental11EventEngine7ClosureESaIS4_EE17_M_initialize_mapEm(ptr noundef nonnull align 8 dereferenceable(80) %3, i64 noundef 0)
  %4 = getelementptr inbounds nuw i8, ptr %0, i64 96
  store ptr %1, ptr %4, align 8, !tbaa !6
  ret void
}